target datalayout = "e-m:e-p270:32:32-p271:32:32-p272:64:64-i64:64-i128:128-f80:128-n8:16:32:64-S128"
target triple = "x86_64-pc-linux-gnu"

%"class.net::StrikeRegister" = type { i32, i32, i32, [8 x i8], i32, i32, i32, i32, ptr, %"class.std::unique_ptr" }
%"class.std::unique_ptr" = type { %"struct.std::__uniq_ptr_data" }
%"struct.std::__uniq_ptr_data" = type { %"class.std::__uniq_ptr_impl" }
%"class.std::__uniq_ptr_impl" = type { %"class.std::tuple" }
%"class.std::tuple" = type { %"struct.std::_Tuple_impl" }
%"struct.std::_Tuple_impl" = type { %"struct.std::_Head_base.1" }
%"struct.std::_Head_base.1" = type { ptr }
%"class.net::StrikeRegister::InternalNode" = type { [2 x i32] }

; Function Attrs: mustprogress nounwind uwtable
define linkonce_odr noundef i32 @_ZNK3net14StrikeRegister12InternalNode5childEj(ptr noundef nonnull align 4 dereferenceable(8) %0, i32 noundef %1) #3 comdat align 2 {
  %3 = alloca ptr, align 8
  %4 = alloca i32, align 4
  store ptr %0, ptr %3, align 8, !tbaa !51
  store i32 %1, ptr %4, align 4, !tbaa !3
  %5 = load ptr, ptr %3, align 8
  %6 = getelementptr inbounds nuw %"class.net::StrikeRegister::InternalNode", ptr %5, i32 0, i32 0
  %7 = load i32, ptr %4, align 4, !tbaa !3
  %8 = zext i32 %7 to i64
  %9 = getelementptr inbounds nuw [2 x i32], ptr %6, i64 0, i64 %8
  %10 = load i32, ptr %9, align 4, !tbaa !3
  %11 = lshr i32 %10, 8
  ret i32 %11
}

; Function Attrs: mustprogress nounwind uwtable
define linkonce_odr noundef zeroext i8 @_ZNK3net14StrikeRegister12InternalNode9otherbitsEv(ptr noundef nonnull align 4 dereferenceable(8) %0) #3 comdat align 2 {
  %2 = alloca ptr, align 8
  store ptr %0, ptr %2, align 8, !tbaa !51
  %3 = load ptr, ptr %2, align 8
  %4 = getelementptr inbounds nuw %"class.net::StrikeRegister::InternalNode", ptr %3, i32 0, i32 0
  %5 = getelementptr inbounds [2 x i32], ptr %4, i64 0, i64 1
  %6 = load i32, ptr %5, align 4, !tbaa !3
  %7 = trunc i32 %6 to i8
  ret i8 %7
}

; Function Attrs: mustprogress nounwind uwtable
define linkonce_odr noundef zeroext i8 @_ZNK3net14StrikeRegister12InternalNode8critbyteEv(ptr noundef nonnull align 4 dereferenceable(8) %0) #3 comdat align 2 {
  %2 = alloca ptr, align 8
  store ptr %0, ptr %2, align 8, !tbaa !51
  %3 = load ptr, ptr %2, align 8
  %4 = getelementptr inbounds nuw %"class.net::StrikeRegister::InternalNode", ptr %3, i32 0, i32 0
  %5 = getelementptr inbounds [2 x i32], ptr %4, i64 0, i64 0
  %6 = load i32, ptr %5, align 4, !tbaa !3
  %7 = trunc i32 %6 to i8
  ret i8 %7
}

; Function Attrs: mustprogress uwtable
define noundef i32 @_ZNK3net14StrikeRegister9BestMatchEPKh(ptr noundef nonnull align 8 dereferenceable(56) %0, ptr noundef %1) #0 align 2 {
  %3 = alloca i32, align 4
  %4 = alloca ptr, align 8
  %5 = alloca ptr, align 8
  %6 = alloca i32, align 4
  %7 = alloca ptr, align 8
  %8 = alloca i8, align 1
  %9 = alloca i32, align 4
  store ptr %0, ptr %4, align 8, !tbaa !24
  store ptr %1, ptr %5, align 8, !tbaa !12
  %10 = load ptr, ptr %4, align 8
  %11 = getelementptr inbounds nuw %"class.net::StrikeRegister", ptr %10, i32 0, i32 7
  %12 = load i32, ptr %11, align 8, !tbaa !48
  %13 = icmp eq i32 %12, -2147483647
  br i1 %13, label %14, label %15

14:                                               ; preds = %2
  store i32 -2147483647, ptr %3, align 4
  br label %49

15:                                               ; preds = %2
  call void @llvm.lifetime.start.p0(i64 4, ptr %6) #17
  %16 = getelementptr inbounds nuw %"class.net::StrikeRegister", ptr %10, i32 0, i32 7
  %17 = load i32, ptr %16, align 8, !tbaa !48
  %18 = lshr i32 %17, 8
  store i32 %18, ptr %6, align 4, !tbaa !3
  br label %19

19:                                               ; preds = %23, %15
  %20 = load i32, ptr %6, align 4, !tbaa !3
  %21 = and i32 %20, 8388608
  %22 = icmp eq i32 %21, 0
  br i1 %22, label %23, label %46

23:                                               ; preds = %19
  call void @llvm.lifetime.start.p0(i64 8, ptr %7) #17
  %24 = getelementptr inbounds nuw %"class.net::StrikeRegister", ptr %10, i32 0, i32 8
  %25 = load ptr, ptr %24, align 8, !tbaa !40
  %26 = load i32, ptr %6, align 4, !tbaa !3
  %27 = zext i32 %26 to i64
  %28 = getelementptr inbounds nuw %"class.net::StrikeRegister::InternalNode", ptr %25, i64 %27
  store ptr %28, ptr %7, align 8, !tbaa !51
  call void @llvm.lifetime.start.p0(i64 1, ptr %8) #17
  %29 = load ptr, ptr %5, align 8, !tbaa !12
  %30 = load ptr, ptr %7, align 8, !tbaa !51
  %31 = call noundef zeroext i8 @_ZNK3net14StrikeRegister12InternalNode8critbyteEv(ptr noundef nonnull align 4 dereferenceable(8) %30)
  %32 = zext i8 %31 to i64
  %33 = getelementptr inbounds nuw i8, ptr %29, i64 %32
  %34 = load i8, ptr %33, align 1, !tbaa !56
  store i8 %34, ptr %8, align 1, !tbaa !56
  call void @llvm.lifetime.start.p0(i64 4, ptr %9) #17
  %35 = load ptr, ptr %7, align 8, !tbaa !51
  %36 = call noundef zeroext i8 @_ZNK3net14StrikeRegister12InternalNode9otherbitsEv(ptr noundef nonnull align 4 dereferenceable(8) %35)
  %37 = zext i8 %36 to i32
  %38 = load i8, ptr %8, align 1, !tbaa !56
  %39 = zext i8 %38 to i32
  %40 = or i32 %37, %39
  %41 = add i32 1, %40
  %42 = lshr i32 %41, 8
  store i32 %42, ptr %9, align 4, !tbaa !3
  %43 = load ptr, ptr %7, align 8, !tbaa !51
  %44 = load i32, ptr %9, align 4, !tbaa !3
  %45 = call noundef i32 @_ZNK3net14StrikeRegister12InternalNode5childEj(ptr noundef nonnull align 4 dereferenceable(8) %43, i32 noundef %44)
  store i32 %45, ptr %6, align 4, !tbaa !3
  call void @llvm.lifetime.end.p0(i64 4, ptr %9) #17
  call void @llvm.lifetime.end.p0(i64 1, ptr %8) #17
  call void @llvm.lifetime.end.p0(i64 8, ptr %7) #17
  br label %19, !llvm.loop !60

46:                                               ; preds = %19
  %47 = load i32, ptr %6, align 4, !tbaa !3
  %48 = and i32 %47, -8388609
  store i32 %48, ptr %3, align 4
  call void @llvm.lifetime.end.p0(i64 4, ptr %6) #17
  br label %49

49:                                               ; preds = %46, %14
  %50 = load i32, ptr %3, align 4
  ret i32 %50
}