; Function Attrs: mustprogress nofree norecurse nosync nounwind willreturn memory(read, inaccessiblemem: none) uwtable
define noundef range(i32 0, -2147483646) i32 @_ZNK3net14StrikeRegister9BestMatchEPKh(ptr noundef nonnull readonly align 8 captures(none) dereferenceable(56) %0, ptr noundef readonly captures(none) %1) local_unnamed_addr #11 align 2 {
  %3 = getelementptr inbounds nuw i8, ptr %0, i64 32
  %4 = load i32, ptr %3, align 8, !tbaa !29
  %5 = icmp eq i32 %4, -2147483647
  br i1 %5, label %28, label %.preheader

.preheader:                                       ; preds = %2
  %.01012 = lshr i32 %4, 8
  %6 = icmp sgt i32 %4, -1
  br i1 %6, label %.lr.ph, label %._crit_edge

.lr.ph:                                           ; preds = %.preheader
  %7 = getelementptr inbounds nuw i8, ptr %0, i64 40
  %8 = load ptr, ptr %7, align 8, !tbaa !22
  br label %9

9:                                                ; preds = %.lr.ph, %9
  %.01013 = phi i32 [ %.01012, %.lr.ph ], [ %.010, %9 ]
  %10 = zext nneg i32 %.01013 to i64
  %11 = getelementptr inbounds nuw %"class.net::StrikeRegister::InternalNode", ptr %8, i64 %10
  %12 = load i32, ptr %11, align 4, !tbaa !3
  %13 = and i32 %12, 255
  %14 = zext nneg i32 %13 to i64
  %15 = getelementptr inbounds nuw i8, ptr %1, i64 %14
  %16 = load i8, ptr %15, align 1, !tbaa !31
  %17 = getelementptr inbounds nuw i8, ptr %11, i64 4
  %18 = load i32, ptr %17, align 4, !tbaa !3
  %19 = trunc i32 %18 to i8
  %20 = or i8 %16, %19
  %21 = zext i8 %20 to i64
  %22 = add nuw nsw i64 %21, 1
  %23 = lshr i64 %22, 8
  %24 = getelementptr inbounds nuw [2 x i32], ptr %11, i64 0, i64 %23
  %25 = load i32, ptr %24, align 4, !tbaa !3
  %.010 = lshr i32 %25, 8
  %26 = icmp sgt i32 %25, -1
  br i1 %26, label %9, label %._crit_edge, !llvm.loop !33

._crit_edge:                                      ; preds = %9, %.preheader
  %.010.lcssa = phi i32 [ %.01012, %.preheader ], [ %.010, %9 ]
  %27 = and i32 %.010.lcssa, 8388607
  br label %28

28:                                               ; preds = %2, %._crit_edge
  %.0 = phi i32 [ %27, %._crit_edge ], [ -2147483647, %2 ]
  ret i32 %.0
}